target datalayout = "e-m:e-p270:32:32-p271:32:32-p272:64:64-i64:64-i128:128-f80:128-n8:16:32:64-S128"
target triple = "x86_64-pc-linux-gnu"

%struct.QualCost = type { double, double }
%struct.ParamPathInfo = type { i32, ptr, double, ptr, ptr }
%struct.Path = type { i32, i32, ptr, ptr, ptr, i8, i8, i32, double, i32, double, double, ptr }
%struct.RelOptInfo = type { i32, i32, ptr, double, i8, i8, i8, ptr, ptr, ptr, ptr, ptr, ptr, ptr, ptr, ptr, ptr, i32, i32, i32, i16, i16, ptr, ptr, ptr, ptr, ptr, ptr, ptr, ptr, i32, double, double, ptr, ptr, ptr, i32, i32, i32, i32, i8, ptr, ptr, ptr, ptr, ptr, %struct.QualCost, i32, ptr, i8, i8, ptr, ptr, ptr, ptr, i32, ptr, i8, ptr, ptr, ptr, ptr, ptr, ptr }
%struct.GatherMergePath = type { %struct.Path, ptr, i32 }

@cpu_operator_cost = dso_local global double 2.500000e-03, align 8
@parallel_tuple_cost = dso_local global double 1.000000e-01, align 8
@parallel_setup_cost = dso_local global double 1.000000e+03, align 8
@enable_gathermerge = dso_local global i8 1, align 1

; Function Attrs: nounwind uwtable
define dso_local void @cost_gather_merge(ptr noundef %0, ptr noundef %1, ptr noundef %2, ptr noundef %3, i32 noundef %4, double noundef %5, double noundef %6, ptr noundef %7) #0 {
  %9 = alloca ptr, align 8
  %10 = alloca ptr, align 8
  %11 = alloca ptr, align 8
  %12 = alloca ptr, align 8
  %13 = alloca i32, align 4
  %14 = alloca double, align 8
  %15 = alloca double, align 8
  %16 = alloca ptr, align 8
  %17 = alloca double, align 8
  %18 = alloca double, align 8
  %19 = alloca double, align 8
  %20 = alloca double, align 8
  %21 = alloca double, align 8
  store ptr %0, ptr %9, align 8
  store ptr %1, ptr %10, align 8
  store ptr %2, ptr %11, align 8
  store ptr %3, ptr %12, align 8
  store i32 %4, ptr %13, align 4
  store double %5, ptr %14, align 8
  store double %6, ptr %15, align 8
  store ptr %7, ptr %16, align 8
  call void @llvm.lifetime.start.p0(i64 8, ptr %17) #9
  store double 0.000000e+00, ptr %17, align 8
  call void @llvm.lifetime.start.p0(i64 8, ptr %18) #9
  store double 0.000000e+00, ptr %18, align 8
  call void @llvm.lifetime.start.p0(i64 8, ptr %19) #9
  call void @llvm.lifetime.start.p0(i64 8, ptr %20) #9
  call void @llvm.lifetime.start.p0(i64 8, ptr %21) #9
  %22 = load ptr, ptr %16, align 8
  %23 = icmp ne ptr %22, null
  br i1 %23, label %24, label %30

24:                                               ; preds = %8
  %25 = load ptr, ptr %16, align 8
  %26 = load double, ptr %25, align 8
  %27 = load ptr, ptr %9, align 8
  %28 = getelementptr inbounds nuw %struct.GatherMergePath, ptr %27, i32 0, i32 0
  %29 = getelementptr inbounds nuw %struct.Path, ptr %28, i32 0, i32 8
  store double %26, ptr %29, align 8
  br label %48

30:                                               ; preds = %8
  %31 = load ptr, ptr %12, align 8
  %32 = icmp ne ptr %31, null
  br i1 %32, label %33, label %40

33:                                               ; preds = %30
  %34 = load ptr, ptr %12, align 8
  %35 = getelementptr inbounds nuw %struct.ParamPathInfo, ptr %34, i32 0, i32 2
  %36 = load double, ptr %35, align 8
  %37 = load ptr, ptr %9, align 8
  %38 = getelementptr inbounds nuw %struct.GatherMergePath, ptr %37, i32 0, i32 0
  %39 = getelementptr inbounds nuw %struct.Path, ptr %38, i32 0, i32 8
  store double %36, ptr %39, align 8
  br label %47

40:                                               ; preds = %30
  %41 = load ptr, ptr %11, align 8
  %42 = getelementptr inbounds nuw %struct.RelOptInfo, ptr %41, i32 0, i32 3
  %43 = load double, ptr %42, align 8
  %44 = load ptr, ptr %9, align 8
  %45 = getelementptr inbounds nuw %struct.GatherMergePath, ptr %44, i32 0, i32 0
  %46 = getelementptr inbounds nuw %struct.Path, ptr %45, i32 0, i32 8
  store double %43, ptr %46, align 8
  br label %47

47:                                               ; preds = %40, %33
  br label %48

48:                                               ; preds = %47, %24
  %49 = load ptr, ptr %9, align 8
  %50 = getelementptr inbounds nuw %struct.GatherMergePath, ptr %49, i32 0, i32 2
  %51 = load i32, ptr %50, align 8
  %52 = sitofp i32 %51 to double
  %53 = fadd double %52, 1.000000e+00
  store double %53, ptr %20, align 8
  %54 = load double, ptr %20, align 8
  %55 = call double @log(double noundef %54) #9
  %56 = fdiv double %55, 0x3FE62E42FEFA39EC
  store double %56, ptr %21, align 8
  %57 = load double, ptr @cpu_operator_cost, align 8
  %58 = fmul double 2.000000e+00, %57
  store double %58, ptr %19, align 8
  %59 = load double, ptr %19, align 8
  %60 = load double, ptr %20, align 8
  %61 = fmul double %59, %60
  %62 = load double, ptr %21, align 8
  %63 = load double, ptr %17, align 8
  %64 = call double @llvm.fmuladd.f64(double %61, double %62, double %63)
  store double %64, ptr %17, align 8
  %65 = load ptr, ptr %9, align 8
  %66 = getelementptr inbounds nuw %struct.GatherMergePath, ptr %65, i32 0, i32 0
  %67 = getelementptr inbounds nuw %struct.Path, ptr %66, i32 0, i32 8
  %68 = load double, ptr %67, align 8
  %69 = load double, ptr %19, align 8
  %70 = fmul double %68, %69
  %71 = load double, ptr %21, align 8
  %72 = load double, ptr %18, align 8
  %73 = call double @llvm.fmuladd.f64(double %70, double %71, double %72)
  store double %73, ptr %18, align 8
  %74 = load double, ptr @cpu_operator_cost, align 8
  %75 = load ptr, ptr %9, align 8
  %76 = getelementptr inbounds nuw %struct.GatherMergePath, ptr %75, i32 0, i32 0
  %77 = getelementptr inbounds nuw %struct.Path, ptr %76, i32 0, i32 8
  %78 = load double, ptr %77, align 8
  %79 = load double, ptr %18, align 8
  %80 = call double @llvm.fmuladd.f64(double %74, double %78, double %79)
  store double %80, ptr %18, align 8
  %81 = load double, ptr @parallel_setup_cost, align 8
  %82 = load double, ptr %17, align 8
  %83 = fadd double %82, %81
  store double %83, ptr %17, align 8
  %84 = load double, ptr @parallel_tuple_cost, align 8
  %85 = load ptr, ptr %9, align 8
  %86 = getelementptr inbounds nuw %struct.GatherMergePath, ptr %85, i32 0, i32 0
  %87 = getelementptr inbounds nuw %struct.Path, ptr %86, i32 0, i32 8
  %88 = load double, ptr %87, align 8
  %89 = fmul double %84, %88
  %90 = load double, ptr %18, align 8
  %91 = call double @llvm.fmuladd.f64(double %89, double 1.050000e+00, double %90)
  store double %91, ptr %18, align 8
  %92 = load i32, ptr %13, align 4
  %93 = load i8, ptr @enable_gathermerge, align 1, !range !4, !noundef !5
  %94 = trunc i8 %93 to i1
  %95 = select i1 %94, i32 0, i32 1
  %96 = add i32 %92, %95
  %97 = load ptr, ptr %9, align 8
  %98 = getelementptr inbounds nuw %struct.GatherMergePath, ptr %97, i32 0, i32 0
  %99 = getelementptr inbounds nuw %struct.Path, ptr %98, i32 0, i32 9
  store i32 %96, ptr %99, align 8
  %100 = load double, ptr %17, align 8
  %101 = load double, ptr %14, align 8
  %102 = fadd double %100, %101
  %103 = load ptr, ptr %9, align 8
  %104 = getelementptr inbounds nuw %struct.GatherMergePath, ptr %103, i32 0, i32 0
  %105 = getelementptr inbounds nuw %struct.Path, ptr %104, i32 0, i32 10
  store double %102, ptr %105, align 8
  %106 = load double, ptr %17, align 8
  %107 = load double, ptr %18, align 8
  %108 = fadd double %106, %107
  %109 = load double, ptr %15, align 8
  %110 = fadd double %108, %109
  %111 = load ptr, ptr %9, align 8
  %112 = getelementptr inbounds nuw %struct.GatherMergePath, ptr %111, i32 0, i32 0
  %113 = getelementptr inbounds nuw %struct.Path, ptr %112, i32 0, i32 11
  store double %110, ptr %113, align 8
  call void @llvm.lifetime.end.p0(i64 8, ptr %21) #9
  call void @llvm.lifetime.end.p0(i64 8, ptr %20) #9
  call void @llvm.lifetime.end.p0(i64 8, ptr %19) #9
  call void @llvm.lifetime.end.p0(i64 8, ptr %18) #9
  call void @llvm.lifetime.end.p0(i64 8, ptr %17) #9
  ret void
}