; Function Attrs: mustprogress nofree nounwind willreturn memory(readwrite, inaccessiblemem: write) uwtable
define dso_local void @cost_gather_merge(ptr noundef captures(none) initializes((40, 52), (56, 72)) %0, ptr noundef readnone captures(none) %1, ptr noundef readonly captures(none) %2, ptr noundef readonly captures(address_is_null) %3, i32 noundef %4, double noundef %5, double noundef %6, ptr noundef readonly captures(address_is_null) %7) local_unnamed_addr #6 {
  %.not = icmp eq ptr %7, null
  br i1 %.not, label %9, label %14

9:                                                ; preds = %8
  %.not32 = icmp eq ptr %3, null
  br i1 %.not32, label %12, label %10

10:                                               ; preds = %9
  %11 = getelementptr inbounds nuw i8, ptr %3, i64 16
  br label %14

12:                                               ; preds = %9
  %13 = getelementptr inbounds nuw i8, ptr %2, i64 16
  br label %14

14:                                               ; preds = %8, %10, %12
  %.sink.in = phi ptr [ %11, %10 ], [ %13, %12 ], [ %7, %8 ]
  %.sink = load double, ptr %.sink.in, align 8
  %15 = getelementptr inbounds nuw i8, ptr %0, i64 40
  store double %.sink, ptr %15, align 8
  %16 = getelementptr inbounds nuw i8, ptr %0, i64 88
  %17 = load i32, ptr %16, align 8
  %18 = sitofp i32 %17 to double
  %19 = fadd double %18, 1.000000e+00
  %20 = tail call double @log(double noundef %19) #17
  %21 = fdiv double %20, 0x3FE62E42FEFA39EC
  %22 = load double, ptr @cpu_operator_cost, align 8
  %23 = fmul double %22, 2.000000e+00
  %24 = fmul double %19, %23
  %25 = tail call double @llvm.fmuladd.f64(double %24, double %21, double 0.000000e+00)
  %26 = getelementptr inbounds nuw i8, ptr %0, i64 40
  %27 = load double, ptr %26, align 8
  %28 = fmul double %27, %23
  %29 = tail call double @llvm.fmuladd.f64(double %28, double %21, double 0.000000e+00)
  %30 = tail call double @llvm.fmuladd.f64(double %22, double %27, double %29)
  %31 = load double, ptr @parallel_setup_cost, align 8
  %32 = fadd double %31, %25
  %33 = load double, ptr @parallel_tuple_cost, align 8
  %34 = fmul double %27, %33
  %35 = tail call double @llvm.fmuladd.f64(double %34, double 1.050000e+00, double %30)
  %36 = load i8, ptr @enable_gathermerge, align 1, !range !4, !noundef !5
  %37 = xor i8 %36, 1
  %not. = zext nneg i8 %37 to i32
  %38 = add i32 %4, %not.
  %39 = getelementptr inbounds nuw i8, ptr %0, i64 48
  store i32 %38, ptr %39, align 8
  %40 = fadd double %5, %32
  %41 = getelementptr inbounds nuw i8, ptr %0, i64 56
  store double %40, ptr %41, align 8
  %42 = fadd double %32, %35
  %43 = fadd double %6, %42
  %44 = getelementptr inbounds nuw i8, ptr %0, i64 64
  store double %43, ptr %44, align 8
  ret void
}